target datalayout = "e-m:e-p270:32:32-p271:32:32-p272:64:64-i64:64-i128:128-f80:128-n8:16:32:64-S128"
target triple = "x86_64-pc-linux-gnu"

%"struct.faiss::InvertedListScanner" = type { ptr, i64, i8, i8, ptr, i64 }
%"struct.std::pair.113" = type { i64, ptr }

; Function Attrs: mustprogress uwtable
define void @_ZNK5faiss19InvertedListScanner19iterate_codes_rangeEPNS_21InvertedListsIteratorEfRNS_16RangeQueryResultERm(ptr noundef nonnull align 8 dereferenceable(40) %0, ptr noundef %1, float noundef %2, ptr noundef nonnull align 8 dereferenceable(24) %3, ptr noundef nonnull align 8 dereferenceable(8) %4) unnamed_addr #0 align 2 {
  %6 = alloca ptr, align 8
  %7 = alloca ptr, align 8
  %8 = alloca float, align 4
  %9 = alloca ptr, align 8
  %10 = alloca ptr, align 8
  %11 = alloca %"struct.std::pair.113", align 8
  %12 = alloca float, align 4
  %13 = alloca i8, align 1
  store ptr %0, ptr %6, align 8, !tbaa !4
  store ptr %1, ptr %7, align 8, !tbaa !33
  store float %2, ptr %8, align 4, !tbaa !25
  store ptr %3, ptr %9, align 8, !tbaa !40
  store ptr %4, ptr %10, align 8, !tbaa !13
  %14 = load ptr, ptr %6, align 8
  %15 = load ptr, ptr %10, align 8, !tbaa !13
  store i64 0, ptr %15, align 8, !tbaa !9
  br label %16

16:                                               ; preds = %63, %5
  %17 = load ptr, ptr %7, align 8, !tbaa !33
  %18 = load ptr, ptr %17, align 8, !tbaa !23
  %19 = getelementptr inbounds ptr, ptr %18, i64 2
  %20 = load ptr, ptr %19, align 8
  %21 = call noundef zeroext i1 %20(ptr noundef nonnull align 8 dereferenceable(8) %17)
  br i1 %21, label %22, label %68

22:                                               ; preds = %16
  call void @llvm.lifetime.start.p0(i64 16, ptr %11) #20
  %23 = load ptr, ptr %7, align 8, !tbaa !33
  %24 = load ptr, ptr %23, align 8, !tbaa !23
  %25 = getelementptr inbounds ptr, ptr %24, i64 4
  %26 = load ptr, ptr %25, align 8
  %27 = call { i64, ptr } %26(ptr noundef nonnull align 8 dereferenceable(8) %23)
  %28 = getelementptr inbounds nuw { i64, ptr }, ptr %11, i32 0, i32 0
  %29 = extractvalue { i64, ptr } %27, 0
  store i64 %29, ptr %28, align 8
  %30 = getelementptr inbounds nuw { i64, ptr }, ptr %11, i32 0, i32 1
  %31 = extractvalue { i64, ptr } %27, 1
  store ptr %31, ptr %30, align 8
  call void @llvm.lifetime.start.p0(i64 4, ptr %12) #20
  %32 = getelementptr inbounds nuw %"struct.std::pair.113", ptr %11, i32 0, i32 1
  %33 = load ptr, ptr %32, align 8, !tbaa !35
  %34 = load ptr, ptr %14, align 8, !tbaa !23
  %35 = getelementptr inbounds ptr, ptr %34, i64 2
  %36 = load ptr, ptr %35, align 8
  %37 = call noundef float %36(ptr noundef nonnull align 8 dereferenceable(40) %14, ptr noundef %33)
  store float %37, ptr %12, align 4, !tbaa !25
  call void @llvm.lifetime.start.p0(i64 1, ptr %13) #20
  %38 = getelementptr inbounds nuw %"struct.faiss::InvertedListScanner", ptr %14, i32 0, i32 2
  %39 = load i8, ptr %38, align 8, !tbaa !17, !range !21, !noundef !22
  %40 = trunc i8 %39 to i1
  br i1 %40, label %45, label %41

41:                                               ; preds = %22
  %42 = load float, ptr %12, align 4, !tbaa !25
  %43 = load float, ptr %8, align 4, !tbaa !25
  %44 = fcmp olt float %42, %43
  br label %49

45:                                               ; preds = %22
  %46 = load float, ptr %12, align 4, !tbaa !25
  %47 = load float, ptr %8, align 4, !tbaa !25
  %48 = fcmp ogt float %46, %47
  br label %49

49:                                               ; preds = %45, %41
  %50 = phi i1 [ %44, %41 ], [ %48, %45 ]
  %51 = zext i1 %50 to i8
  store i8 %51, ptr %13, align 1, !tbaa !42
  %52 = load i8, ptr %13, align 1, !tbaa !42, !range !21, !noundef !22
  %53 = trunc i8 %52 to i1
  br i1 %53, label %54, label %59

54:                                               ; preds = %49
  %55 = load ptr, ptr %9, align 8, !tbaa !40
  %56 = load float, ptr %12, align 4, !tbaa !25
  %57 = getelementptr inbounds nuw %"struct.std::pair.113", ptr %11, i32 0, i32 0
  %58 = load i64, ptr %57, align 8, !tbaa !37
  call void @_ZN5faiss16RangeQueryResult3addEfl(ptr noundef nonnull align 8 dereferenceable(24) %55, float noundef %56, i64 noundef %58)
  br label %59

59:                                               ; preds = %54, %49
  %60 = load ptr, ptr %10, align 8, !tbaa !13
  %61 = load i64, ptr %60, align 8, !tbaa !9
  %62 = add i64 %61, 1
  store i64 %62, ptr %60, align 8, !tbaa !9
  call void @llvm.lifetime.end.p0(i64 1, ptr %13) #20
  call void @llvm.lifetime.end.p0(i64 4, ptr %12) #20
  call void @llvm.lifetime.end.p0(i64 16, ptr %11) #20
  br label %63

63:                                               ; preds = %59
  %64 = load ptr, ptr %7, align 8, !tbaa !33
  %65 = load ptr, ptr %64, align 8, !tbaa !23
  %66 = getelementptr inbounds ptr, ptr %65, i64 3
  %67 = load ptr, ptr %66, align 8
  call void %67(ptr noundef nonnull align 8 dereferenceable(8) %64)
  br label %16, !llvm.loop !44

68:                                               ; preds = %16
  ret void
}