; Function Attrs: mustprogress uwtable
define void @_ZNK5faiss19InvertedListScanner19iterate_codes_rangeEPNS_21InvertedListsIteratorEfRNS_16RangeQueryResultERm(ptr noundef nonnull align 8 dereferenceable(40) %0, ptr noundef %1, float noundef %2, ptr noundef nonnull align 8 dereferenceable(24) %3, ptr noundef nonnull align 8 captures(none) dereferenceable(8) initializes((0, 8)) %4) unnamed_addr #0 align 2 {
  store i64 0, ptr %4, align 8, !tbaa !19
  %6 = load ptr, ptr %1, align 8, !tbaa !14
  %7 = getelementptr inbounds nuw i8, ptr %6, i64 16
  %8 = load ptr, ptr %7, align 8
  %9 = tail call noundef zeroext i1 %8(ptr noundef nonnull align 8 dereferenceable(8) %1)
  br i1 %9, label %.lr.ph, label %._crit_edge

.lr.ph:                                           ; preds = %5
  %10 = getelementptr inbounds nuw i8, ptr %0, i64 16
  br label %11

11:                                               ; preds = %.lr.ph, %28
  %12 = load ptr, ptr %1, align 8, !tbaa !14
  %13 = getelementptr inbounds nuw i8, ptr %12, i64 32
  %14 = load ptr, ptr %13, align 8
  %15 = tail call { i64, ptr } %14(ptr noundef nonnull align 8 dereferenceable(8) %1)
  %16 = extractvalue { i64, ptr } %15, 1
  %17 = load ptr, ptr %0, align 8, !tbaa !14
  %18 = getelementptr inbounds nuw i8, ptr %17, i64 16
  %19 = load ptr, ptr %18, align 8
  %20 = tail call noundef float %19(ptr noundef nonnull align 8 dereferenceable(40) %0, ptr noundef %16)
  %21 = load i8, ptr %10, align 8, !tbaa !4, !range !12, !noundef !13
  %22 = trunc nuw i8 %21 to i1
  %23 = fcmp olt float %20, %2
  %24 = fcmp ogt float %20, %2
  %25 = select i1 %22, i1 %24, i1 %23
  br i1 %25, label %26, label %28

26:                                               ; preds = %11
  %27 = extractvalue { i64, ptr } %15, 0
  tail call void @_ZN5faiss16RangeQueryResult3addEfl(ptr noundef nonnull align 8 dereferenceable(24) %3, float noundef %20, i64 noundef %27)
  br label %28

28:                                               ; preds = %26, %11
  %29 = load i64, ptr %4, align 8, !tbaa !19
  %30 = add i64 %29, 1
  store i64 %30, ptr %4, align 8, !tbaa !19
  %31 = load ptr, ptr %1, align 8, !tbaa !14
  %32 = getelementptr inbounds nuw i8, ptr %31, i64 24
  %33 = load ptr, ptr %32, align 8
  tail call void %33(ptr noundef nonnull align 8 dereferenceable(8) %1)
  %34 = load ptr, ptr %1, align 8, !tbaa !14
  %35 = getelementptr inbounds nuw i8, ptr %34, i64 16
  %36 = load ptr, ptr %35, align 8
  %37 = tail call noundef zeroext i1 %36(ptr noundef nonnull align 8 dereferenceable(8) %1)
  br i1 %37, label %11, label %._crit_edge, !llvm.loop !30

._crit_edge:                                      ; preds = %28, %5
  ret void
}